; Function Attrs: nounwind sspstrong uwtable
define internal noundef i64 @rb_mod_autoload(i64 noundef %0, i64 noundef %1, i64 noundef %2) #0 {
  %4 = alloca i64, align 8
  %5 = alloca ptr, align 8
  store i64 %2, ptr %4, align 8, !tbaa !42
  %6 = tail call i64 @rb_to_id(i64 noundef %1) #7
  %7 = tail call i64 @rb_get_path(i64 noundef %2) #7
  call void @llvm.lifetime.start.p0(i64 8, ptr nonnull %5) #7
  store ptr %4, ptr %5, align 8, !tbaa !49
  call void asm sideeffect "", "*m,~{dirflag},~{fpsr},~{flags}"(ptr nonnull elementtype(ptr) %5) #7, !srcloc !198
  %8 = load ptr, ptr %5, align 8, !tbaa !49
  call void @llvm.lifetime.end.p0(i64 8, ptr nonnull %5) #7
  store volatile i64 %7, ptr %8, align 8, !tbaa !42
  %9 = load i64, ptr %4, align 8, !tbaa !42
  call void @rb_autoload_str(i64 noundef %0, i64 noundef %6, i64 noundef %9) #7
  ret i64 4
}